; Function Attrs: nounwind uwtable
define internal noundef i32 @gen_probe_initial(ptr noundef readonly captures(none) %0) #0 {
  %2 = getelementptr inbounds nuw i8, ptr %0, i64 192
  %3 = load ptr, ptr %2, align 8, !tbaa !57
  %4 = tail call ptr @ossl_ackm_get0_probe_request(ptr noundef %3) #8
  %5 = load i32, ptr %4, align 4, !tbaa !126
  %6 = add i32 %5, 1
  store i32 %6, ptr %4, align 4, !tbaa !126
  ret i32 1
}